target datalayout = "e-m:e-p270:32:32-p271:32:32-p272:64:64-i64:64-i128:128-f80:128-n8:16:32:64-S128"
target triple = "x86_64-pc-linux-gnu"

%struct.H5FL_reg_head_t = type { i8, i32, i32, ptr, i64, ptr }
%struct.H5FL_blk_head_t = type { i8, i32, i32, i64, ptr, ptr }
%struct.H5HF_direct_t = type { %struct.H5C_cache_entry_t, ptr, ptr, ptr, i32, i64, i64, ptr, ptr, i64, i64 }
%struct.H5C_cache_entry_t = type { ptr, i64, i64, ptr, i8, ptr, i8, i8, i8, i8, i32, i8, i8, i8, i8, i8, i32, ptr, i32, i32, i32, i32, i32, i8, i8, ptr, ptr, ptr, ptr, ptr, ptr, i8, i32, i8, i64, ptr, i64, i64, i32, i8, i32, i32, i8, ptr, ptr, ptr }

@H5_H5HF_direct_t_reg_free_list = global %struct.H5FL_reg_head_t { i8 0, i32 0, i32 0, ptr @.str, i64 328, ptr null }, align 8
@.str.1 = private unnamed_addr constant [104 x i8] c"generated/home/dtcxzyw/WorkSpace/Projects/compilers/llvm-opt-benchmark/bench/hdf5/hdf5/src/H5HFdblock.c\00", align 1
@H5E_HEAP_g = external global i64, align 8
@H5_direct_block_blk_free_list = external global %struct.H5FL_blk_head_t, align 8
@__func__.H5HF__man_dblock_dest = private unnamed_addr constant [22 x i8] c"H5HF__man_dblock_dest\00", align 1
@H5E_CANTDEC_g = external global i64, align 8
@.str.32 = private unnamed_addr constant [54 x i8] c"can't decrement reference count on shared heap header\00", align 1
@.str.33 = private unnamed_addr constant [57 x i8] c"can't decrement reference count on shared indirect block\00", align 1

; Function Attrs: nounwind uwtable
define i32 @H5HF__man_dblock_dest(ptr noundef %0) #0 {
  %2 = alloca ptr, align 8
  %3 = alloca i32, align 4
  %4 = alloca i8, align 1
  store ptr %0, ptr %2, align 8
  store i32 0, ptr %3, align 4
  store i8 0, ptr %4, align 1
  %5 = load ptr, ptr %2, align 8
  %6 = getelementptr inbounds %struct.H5HF_direct_t, ptr %5, i32 0, i32 1
  %7 = load ptr, ptr %6, align 8
  %8 = call i32 @H5HF__hdr_decr(ptr noundef %7)
  %9 = icmp slt i32 %8, 0
  br i1 %9, label %10, label %25

10:                                               ; preds = %1
  br label %11

11:                                               ; preds = %10
  br label %12

12:                                               ; preds = %11
  br label %13

13:                                               ; preds = %12
  %14 = load i64, ptr @H5E_HEAP_g, align 8
  %15 = load i64, ptr @H5E_CANTDEC_g, align 8
  %16 = call i32 (ptr, ptr, i32, i64, i64, ptr, ...) @H5E_printf_stack(ptr noundef @.str.1, ptr noundef @__func__.H5HF__man_dblock_dest, i32 noundef 674, i64 noundef %14, i64 noundef %15, ptr noundef @.str.32)
  br label %17

17:                                               ; preds = %13
  store i8 1, ptr %4, align 1
  %18 = load i8, ptr %4, align 1
  %19 = trunc i8 %18 to i1
  %20 = zext i1 %19 to i8
  store i8 %20, ptr %4, align 1
  br label %21

21:                                               ; preds = %17
  br label %22

22:                                               ; preds = %21
  store i32 -1, ptr %3, align 4
  br label %61

23:                                               ; No predecessors!
  br label %24

24:                                               ; preds = %23
  br label %25

25:                                               ; preds = %24, %1
  %26 = load ptr, ptr %2, align 8
  %27 = getelementptr inbounds %struct.H5HF_direct_t, ptr %26, i32 0, i32 2
  %28 = load ptr, ptr %27, align 8
  %29 = icmp ne ptr %28, null
  br i1 %29, label %30, label %52

30:                                               ; preds = %25
  %31 = load ptr, ptr %2, align 8
  %32 = getelementptr inbounds %struct.H5HF_direct_t, ptr %31, i32 0, i32 2
  %33 = load ptr, ptr %32, align 8
  %34 = call i32 @H5HF__iblock_decr(ptr noundef %33)
  %35 = icmp slt i32 %34, 0
  br i1 %35, label %36, label %51

36:                                               ; preds = %30
  br label %37

37:                                               ; preds = %36
  br label %38

38:                                               ; preds = %37
  br label %39

39:                                               ; preds = %38
  %40 = load i64, ptr @H5E_HEAP_g, align 8
  %41 = load i64, ptr @H5E_CANTDEC_g, align 8
  %42 = call i32 (ptr, ptr, i32, i64, i64, ptr, ...) @H5E_printf_stack(ptr noundef @.str.1, ptr noundef @__func__.H5HF__man_dblock_dest, i32 noundef 678, i64 noundef %40, i64 noundef %41, ptr noundef @.str.33)
  br label %43

43:                                               ; preds = %39
  store i8 1, ptr %4, align 1
  %44 = load i8, ptr %4, align 1
  %45 = trunc i8 %44 to i1
  %46 = zext i1 %45 to i8
  store i8 %46, ptr %4, align 1
  br label %47

47:                                               ; preds = %43
  br label %48

48:                                               ; preds = %47
  store i32 -1, ptr %3, align 4
  br label %61

49:                                               ; No predecessors!
  br label %50

50:                                               ; preds = %49
  br label %51

51:                                               ; preds = %50, %30
  br label %52

52:                                               ; preds = %51, %25
  %53 = load ptr, ptr %2, align 8
  %54 = getelementptr inbounds %struct.H5HF_direct_t, ptr %53, i32 0, i32 7
  %55 = load ptr, ptr %54, align 8
  %56 = call ptr @H5FL_blk_free(ptr noundef @H5_direct_block_blk_free_list, ptr noundef %55)
  %57 = load ptr, ptr %2, align 8
  %58 = getelementptr inbounds %struct.H5HF_direct_t, ptr %57, i32 0, i32 7
  store ptr %56, ptr %58, align 8
  %59 = load ptr, ptr %2, align 8
  %60 = call ptr @H5FL_reg_free(ptr noundef @H5_H5HF_direct_t_reg_free_list, ptr noundef %59)
  store ptr %60, ptr %2, align 8
  br label %61

61:                                               ; preds = %52, %48, %22
  %62 = load i32, ptr %3, align 4
  ret i32 %62
}