; Function Attrs: nounwind uwtable
define range(i32 -1, 1) i32 @H5HF__man_dblock_dest(ptr noundef %0) local_unnamed_addr #0 {
  %2 = getelementptr inbounds i8, ptr %0, i64 248
  %3 = load ptr, ptr %2, align 8
  %4 = tail call i32 @H5HF__hdr_decr(ptr noundef %3) #4
  %5 = icmp slt i32 %4, 0
  br i1 %5, label %6, label %10

6:                                                ; preds = %1
  %7 = load i64, ptr @H5E_HEAP_g, align 8
  %8 = load i64, ptr @H5E_CANTDEC_g, align 8
  %9 = tail call i32 (ptr, ptr, i32, i64, i64, ptr, ...) @H5E_printf_stack(ptr noundef nonnull @.str.1, ptr noundef nonnull @__func__.H5HF__man_dblock_dest, i32 noundef 674, i64 noundef %7, i64 noundef %8, ptr noundef nonnull @.str.32) #4
  br label %25

10:                                               ; preds = %1
  %11 = getelementptr inbounds i8, ptr %0, i64 256
  %12 = load ptr, ptr %11, align 8
  %.not = icmp eq ptr %12, null
  br i1 %.not, label %20, label %13

13:                                               ; preds = %10
  %14 = tail call i32 @H5HF__iblock_decr(ptr noundef nonnull %12) #4
  %15 = icmp slt i32 %14, 0
  br i1 %15, label %16, label %20

16:                                               ; preds = %13
  %17 = load i64, ptr @H5E_HEAP_g, align 8
  %18 = load i64, ptr @H5E_CANTDEC_g, align 8
  %19 = tail call i32 (ptr, ptr, i32, i64, i64, ptr, ...) @H5E_printf_stack(ptr noundef nonnull @.str.1, ptr noundef nonnull @__func__.H5HF__man_dblock_dest, i32 noundef 678, i64 noundef %17, i64 noundef %18, ptr noundef nonnull @.str.33) #4
  br label %25

20:                                               ; preds = %13, %10
  %21 = getelementptr inbounds i8, ptr %0, i64 296
  %22 = load ptr, ptr %21, align 8
  %23 = tail call ptr @H5FL_blk_free(ptr noundef nonnull @H5_direct_block_blk_free_list, ptr noundef %22) #4
  store ptr %23, ptr %21, align 8
  %24 = tail call ptr @H5FL_reg_free(ptr noundef nonnull @H5_H5HF_direct_t_reg_free_list, ptr noundef nonnull %0) #4
  br label %25

25:                                               ; preds = %20, %16, %6
  %.0 = phi i32 [ -1, %6 ], [ -1, %16 ], [ 0, %20 ]
  ret i32 %.0
}